target datalayout = "e-m:e-p270:32:32-p271:32:32-p272:64:64-i64:64-i128:128-f80:128-n8:16:32:64-S128"
target triple = "x86_64-pc-linux-gnu"

@.str.15 = private unnamed_addr constant [2 x i8] c"\0A\00", align 1
@.str.25 = private unnamed_addr constant [6 x i8] c"%08x \00", align 1
@.str.26 = private unnamed_addr constant [6 x i8] c" %02x\00", align 1
@.str.27 = private unnamed_addr constant [4 x i8] c"   \00", align 1
@.str.28 = private unnamed_addr constant [2 x i8] c" \00", align 1
@.str.29 = private unnamed_addr constant [3 x i8] c"%c\00", align 1

; Function Attrs: nounwind uwtable
define internal void @hex_dump_internal(ptr noundef %0, ptr noundef %1, i32 noundef %2, ptr noundef %3, i32 noundef %4) #0 {
  %6 = alloca ptr, align 8
  %7 = alloca ptr, align 8
  %8 = alloca i32, align 4
  %9 = alloca ptr, align 8
  %10 = alloca i32, align 4
  %11 = alloca i32, align 4
  %12 = alloca i32, align 4
  %13 = alloca i32, align 4
  %14 = alloca i32, align 4
  store ptr %0, ptr %6, align 8, !tbaa !13
  store ptr %1, ptr %7, align 8, !tbaa !4
  store i32 %2, ptr %8, align 4, !tbaa !11
  store ptr %3, ptr %9, align 8, !tbaa !9
  store i32 %4, ptr %10, align 4, !tbaa !11
  call void @llvm.lifetime.start.p0(i64 4, ptr %11) #9
  call void @llvm.lifetime.start.p0(i64 4, ptr %12) #9
  call void @llvm.lifetime.start.p0(i64 4, ptr %13) #9
  call void @llvm.lifetime.start.p0(i64 4, ptr %14) #9
  store i32 0, ptr %12, align 4, !tbaa !11
  br label %15

15:                                               ; preds = %157, %5
  %16 = load i32, ptr %12, align 4, !tbaa !11
  %17 = load i32, ptr %10, align 4, !tbaa !11
  %18 = icmp slt i32 %16, %17
  br i1 %18, label %19, label %160

19:                                               ; preds = %15
  %20 = load i32, ptr %10, align 4, !tbaa !11
  %21 = load i32, ptr %12, align 4, !tbaa !11
  %22 = sub nsw i32 %20, %21
  store i32 %22, ptr %11, align 4, !tbaa !11
  %23 = load i32, ptr %11, align 4, !tbaa !11
  %24 = icmp sgt i32 %23, 16
  br i1 %24, label %25, label %26

25:                                               ; preds = %19
  store i32 16, ptr %11, align 4, !tbaa !11
  br label %26

26:                                               ; preds = %25, %19
  br label %27

27:                                               ; preds = %26
  %28 = load ptr, ptr %7, align 8, !tbaa !4
  %29 = icmp ne ptr %28, null
  br i1 %29, label %34, label %30

30:                                               ; preds = %27
  %31 = load ptr, ptr %6, align 8, !tbaa !13
  %32 = load i32, ptr %8, align 4, !tbaa !11
  %33 = load i32, ptr %12, align 4, !tbaa !11
  call void (ptr, i32, ptr, ...) @av_log(ptr noundef %31, i32 noundef %32, ptr noundef @.str.25, i32 noundef %33)
  br label %38

34:                                               ; preds = %27
  %35 = load ptr, ptr %7, align 8, !tbaa !4
  %36 = load i32, ptr %12, align 4, !tbaa !11
  %37 = call i32 (ptr, ptr, ...) @fprintf(ptr noundef %35, ptr noundef @.str.25, i32 noundef %36) #9
  br label %38

38:                                               ; preds = %34, %30
  br label %39

39:                                               ; preds = %38
  br label %40

40:                                               ; preds = %39
  store i32 0, ptr %13, align 4, !tbaa !11
  br label %41

41:                                               ; preds = %91, %40
  %42 = load i32, ptr %13, align 4, !tbaa !11
  %43 = icmp slt i32 %42, 16
  br i1 %43, label %44, label %94

44:                                               ; preds = %41
  %45 = load i32, ptr %13, align 4, !tbaa !11
  %46 = load i32, ptr %11, align 4, !tbaa !11
  %47 = icmp slt i32 %45, %46
  br i1 %47, label %48, label %77

48:                                               ; preds = %44
  br label %49

49:                                               ; preds = %48
  %50 = load ptr, ptr %7, align 8, !tbaa !4
  %51 = icmp ne ptr %50, null
  br i1 %51, label %63, label %52

52:                                               ; preds = %49
  %53 = load ptr, ptr %6, align 8, !tbaa !13
  %54 = load i32, ptr %8, align 4, !tbaa !11
  %55 = load ptr, ptr %9, align 8, !tbaa !9
  %56 = load i32, ptr %12, align 4, !tbaa !11
  %57 = load i32, ptr %13, align 4, !tbaa !11
  %58 = add nsw i32 %56, %57
  %59 = sext i32 %58 to i64
  %60 = getelementptr inbounds i8, ptr %55, i64 %59
  %61 = load i8, ptr %60, align 1, !tbaa !14
  %62 = zext i8 %61 to i32
  call void (ptr, i32, ptr, ...) @av_log(ptr noundef %53, i32 noundef %54, ptr noundef @.str.26, i32 noundef %62)
  br label %74

63:                                               ; preds = %49
  %64 = load ptr, ptr %7, align 8, !tbaa !4
  %65 = load ptr, ptr %9, align 8, !tbaa !9
  %66 = load i32, ptr %12, align 4, !tbaa !11
  %67 = load i32, ptr %13, align 4, !tbaa !11
  %68 = add nsw i32 %66, %67
  %69 = sext i32 %68 to i64
  %70 = getelementptr inbounds i8, ptr %65, i64 %69
  %71 = load i8, ptr %70, align 1, !tbaa !14
  %72 = zext i8 %71 to i32
  %73 = call i32 (ptr, ptr, ...) @fprintf(ptr noundef %64, ptr noundef @.str.26, i32 noundef %72) #9
  br label %74

74:                                               ; preds = %63, %52
  br label %75

75:                                               ; preds = %74
  br label %76

76:                                               ; preds = %75
  br label %90

77:                                               ; preds = %44
  br label %78

78:                                               ; preds = %77
  %79 = load ptr, ptr %7, align 8, !tbaa !4
  %80 = icmp ne ptr %79, null
  br i1 %80, label %84, label %81

81:                                               ; preds = %78
  %82 = load ptr, ptr %6, align 8, !tbaa !13
  %83 = load i32, ptr %8, align 4, !tbaa !11
  call void (ptr, i32, ptr, ...) @av_log(ptr noundef %82, i32 noundef %83, ptr noundef @.str.27)
  br label %87

84:                                               ; preds = %78
  %85 = load ptr, ptr %7, align 8, !tbaa !4
  %86 = call i32 (ptr, ptr, ...) @fprintf(ptr noundef %85, ptr noundef @.str.27) #9
  br label %87

87:                                               ; preds = %84, %81
  br label %88

88:                                               ; preds = %87
  br label %89

89:                                               ; preds = %88
  br label %90

90:                                               ; preds = %89, %76
  br label %91

91:                                               ; preds = %90
  %92 = load i32, ptr %13, align 4, !tbaa !11
  %93 = add nsw i32 %92, 1
  store i32 %93, ptr %13, align 4, !tbaa !11
  br label %41, !llvm.loop !15

94:                                               ; preds = %41
  br label %95

95:                                               ; preds = %94
  %96 = load ptr, ptr %7, align 8, !tbaa !4
  %97 = icmp ne ptr %96, null
  br i1 %97, label %101, label %98

98:                                               ; preds = %95
  %99 = load ptr, ptr %6, align 8, !tbaa !13
  %100 = load i32, ptr %8, align 4, !tbaa !11
  call void (ptr, i32, ptr, ...) @av_log(ptr noundef %99, i32 noundef %100, ptr noundef @.str.28)
  br label %104

101:                                              ; preds = %95
  %102 = load ptr, ptr %7, align 8, !tbaa !4
  %103 = call i32 (ptr, ptr, ...) @fprintf(ptr noundef %102, ptr noundef @.str.28) #9
  br label %104

104:                                              ; preds = %101, %98
  br label %105

105:                                              ; preds = %104
  br label %106

106:                                              ; preds = %105
  store i32 0, ptr %13, align 4, !tbaa !11
  br label %107

107:                                              ; preds = %141, %106
  %108 = load i32, ptr %13, align 4, !tbaa !11
  %109 = load i32, ptr %11, align 4, !tbaa !11
  %110 = icmp slt i32 %108, %109
  br i1 %110, label %111, label %144

111:                                              ; preds = %107
  %112 = load ptr, ptr %9, align 8, !tbaa !9
  %113 = load i32, ptr %12, align 4, !tbaa !11
  %114 = load i32, ptr %13, align 4, !tbaa !11
  %115 = add nsw i32 %113, %114
  %116 = sext i32 %115 to i64
  %117 = getelementptr inbounds i8, ptr %112, i64 %116
  %118 = load i8, ptr %117, align 1, !tbaa !14
  %119 = zext i8 %118 to i32
  store i32 %119, ptr %14, align 4, !tbaa !11
  %120 = load i32, ptr %14, align 4, !tbaa !11
  %121 = icmp slt i32 %120, 32
  br i1 %121, label %125, label %122

122:                                              ; preds = %111
  %123 = load i32, ptr %14, align 4, !tbaa !11
  %124 = icmp sgt i32 %123, 126
  br i1 %124, label %125, label %126

125:                                              ; preds = %122, %111
  store i32 46, ptr %14, align 4, !tbaa !11
  br label %126

126:                                              ; preds = %125, %122
  br label %127

127:                                              ; preds = %126
  %128 = load ptr, ptr %7, align 8, !tbaa !4
  %129 = icmp ne ptr %128, null
  br i1 %129, label %134, label %130

130:                                              ; preds = %127
  %131 = load ptr, ptr %6, align 8, !tbaa !13
  %132 = load i32, ptr %8, align 4, !tbaa !11
  %133 = load i32, ptr %14, align 4, !tbaa !11
  call void (ptr, i32, ptr, ...) @av_log(ptr noundef %131, i32 noundef %132, ptr noundef @.str.29, i32 noundef %133)
  br label %138

134:                                              ; preds = %127
  %135 = load ptr, ptr %7, align 8, !tbaa !4
  %136 = load i32, ptr %14, align 4, !tbaa !11
  %137 = call i32 (ptr, ptr, ...) @fprintf(ptr noundef %135, ptr noundef @.str.29, i32 noundef %136) #9
  br label %138

138:                                              ; preds = %134, %130
  br label %139

139:                                              ; preds = %138
  br label %140

140:                                              ; preds = %139
  br label %141

141:                                              ; preds = %140
  %142 = load i32, ptr %13, align 4, !tbaa !11
  %143 = add nsw i32 %142, 1
  store i32 %143, ptr %13, align 4, !tbaa !11
  br label %107, !llvm.loop !17

144:                                              ; preds = %107
  br label %145

145:                                              ; preds = %144
  %146 = load ptr, ptr %7, align 8, !tbaa !4
  %147 = icmp ne ptr %146, null
  br i1 %147, label %151, label %148

148:                                              ; preds = %145
  %149 = load ptr, ptr %6, align 8, !tbaa !13
  %150 = load i32, ptr %8, align 4, !tbaa !11
  call void (ptr, i32, ptr, ...) @av_log(ptr noundef %149, i32 noundef %150, ptr noundef @.str.15)
  br label %154

151:                                              ; preds = %145
  %152 = load ptr, ptr %7, align 8, !tbaa !4
  %153 = call i32 (ptr, ptr, ...) @fprintf(ptr noundef %152, ptr noundef @.str.15) #9
  br label %154

154:                                              ; preds = %151, %148
  br label %155

155:                                              ; preds = %154
  br label %156

156:                                              ; preds = %155
  br label %157

157:                                              ; preds = %156
  %158 = load i32, ptr %12, align 4, !tbaa !11
  %159 = add nsw i32 %158, 16
  store i32 %159, ptr %12, align 4, !tbaa !11
  br label %15, !llvm.loop !18

160:                                              ; preds = %15
  call void @llvm.lifetime.end.p0(i64 4, ptr %14) #9
  call void @llvm.lifetime.end.p0(i64 4, ptr %13) #9
  call void @llvm.lifetime.end.p0(i64 4, ptr %12) #9
  call void @llvm.lifetime.end.p0(i64 4, ptr %11) #9
  ret void
}