; Function Attrs: nounwind uwtable
define internal fastcc void @hex_dump_internal(ptr noundef %0, ptr noundef captures(address_is_null) %1, i32 noundef %2, ptr noundef readonly captures(none) %3, i32 noundef %4) unnamed_addr #0 {
  %6 = icmp sgt i32 %4, 0
  br i1 %6, label %.lr.ph66, label %._crit_edge67

.lr.ph66:                                         ; preds = %5
  %.not = icmp eq ptr %1, null
  %7 = zext nneg i32 %4 to i64
  br label %8

8:                                                ; preds = %.lr.ph66, %37
  %indvars.iv81 = phi i64 [ 0, %.lr.ph66 ], [ %indvars.iv.next82, %37 ]
  %9 = sub nsw i64 %7, %indvars.iv81
  %10 = trunc nsw i64 %9 to i32
  %spec.store.select = tail call i32 @llvm.smin.i32(i32 %10, i32 16)
  %11 = trunc nuw nsw i64 %indvars.iv81 to i32
  %invariant.gep86 = getelementptr inbounds nuw i8, ptr %3, i64 %indvars.iv81
  br i1 %.not, label %.split.us.preheader, label %.split.preheader

.split.preheader:                                 ; preds = %8
  %12 = tail call i32 (ptr, ptr, ...) @fprintf(ptr noundef nonnull %1, ptr noundef nonnull @.str.25, i32 noundef %11) #9
  br label %.split

.split.us.preheader:                              ; preds = %8
  tail call void (ptr, i32, ptr, ...) @av_log(ptr noundef %0, i32 noundef %2, ptr noundef nonnull @.str.25, i32 noundef %11) #9
  br label %.split.us

.split.us:                                        ; preds = %.split.us.preheader, %18
  %indvars.iv71 = phi i64 [ 0, %.split.us.preheader ], [ %indvars.iv.next72, %18 ]
  %13 = icmp sgt i64 %9, %indvars.iv71
  br i1 %13, label %15, label %14

14:                                               ; preds = %.split.us
  tail call void (ptr, i32, ptr, ...) @av_log(ptr noundef %0, i32 noundef %2, ptr noundef nonnull @.str.27) #9
  br label %18

15:                                               ; preds = %.split.us
  %gep87 = getelementptr inbounds nuw i8, ptr %invariant.gep86, i64 %indvars.iv71
  %16 = load i8, ptr %gep87, align 1, !tbaa !4
  %17 = zext i8 %16 to i32
  tail call void (ptr, i32, ptr, ...) @av_log(ptr noundef %0, i32 noundef %2, ptr noundef nonnull @.str.26, i32 noundef %17) #9
  br label %18

18:                                               ; preds = %15, %14
  %indvars.iv.next72 = add nuw nsw i64 %indvars.iv71, 1
  %exitcond74.not = icmp eq i64 %indvars.iv.next72, 16
  br i1 %exitcond74.not, label %.thread84, label %.split.us, !llvm.loop !7

.split:                                           ; preds = %.split.preheader, %26
  %indvars.iv = phi i64 [ 0, %.split.preheader ], [ %indvars.iv.next, %26 ]
  %19 = icmp sgt i64 %9, %indvars.iv
  br i1 %19, label %20, label %24

20:                                               ; preds = %.split
  %gep = getelementptr inbounds nuw i8, ptr %invariant.gep86, i64 %indvars.iv
  %21 = load i8, ptr %gep, align 1, !tbaa !4
  %22 = zext i8 %21 to i32
  %23 = tail call i32 (ptr, ptr, ...) @fprintf(ptr noundef nonnull %1, ptr noundef nonnull @.str.26, i32 noundef %22) #9
  br label %26

24:                                               ; preds = %.split
  %25 = tail call i64 @fwrite(ptr nonnull @.str.27, i64 3, i64 1, ptr nonnull %1)
  br label %26

26:                                               ; preds = %20, %24
  %indvars.iv.next = add nuw nsw i64 %indvars.iv, 1
  %exitcond.not = icmp eq i64 %indvars.iv.next, 16
  br i1 %exitcond.not, label %.loopexit, label %.split, !llvm.loop !7

.loopexit:                                        ; preds = %26
  %fputc = tail call i32 @fputc(i32 32, ptr nonnull %1)
  %27 = icmp sgt i64 %9, 0
  br i1 %27, label %.lr.ph.split.preheader, label %._crit_edge.thread85

.thread84:                                        ; preds = %18
  tail call void (ptr, i32, ptr, ...) @av_log(ptr noundef %0, i32 noundef %2, ptr noundef nonnull @.str.28) #9
  %28 = icmp sgt i64 %9, 0
  br i1 %28, label %.lr.ph.split.us.preheader, label %._crit_edge.thread

.lr.ph.split.preheader:                           ; preds = %.loopexit
  %29 = sext i32 %spec.store.select to i64
  %invariant.gep88 = getelementptr inbounds nuw i8, ptr %3, i64 %indvars.iv81
  br label %.lr.ph.split

.lr.ph.split.us.preheader:                        ; preds = %.thread84
  %30 = sext i32 %spec.store.select to i64
  %invariant.gep90 = getelementptr inbounds nuw i8, ptr %3, i64 %indvars.iv81
  br label %.lr.ph.split.us

.lr.ph.split.us:                                  ; preds = %.lr.ph.split.us.preheader, %.lr.ph.split.us
  %indvars.iv78 = phi i64 [ 0, %.lr.ph.split.us.preheader ], [ %indvars.iv.next79, %.lr.ph.split.us ]
  %gep91 = getelementptr inbounds nuw i8, ptr %invariant.gep90, i64 %indvars.iv78
  %31 = load i8, ptr %gep91, align 1, !tbaa !4
  %32 = add i8 %31, -127
  %or.cond.us = icmp ult i8 %32, -95
  %narrow.us = select i1 %or.cond.us, i8 46, i8 %31
  %spec.store.select2.us = zext i8 %narrow.us to i32
  tail call void (ptr, i32, ptr, ...) @av_log(ptr noundef %0, i32 noundef %2, ptr noundef nonnull @.str.29, i32 noundef %spec.store.select2.us) #9
  %indvars.iv.next79 = add nuw nsw i64 %indvars.iv78, 1
  %33 = icmp slt i64 %indvars.iv.next79, %30
  br i1 %33, label %.lr.ph.split.us, label %._crit_edge.thread, !llvm.loop !9

.lr.ph.split:                                     ; preds = %.lr.ph.split.preheader, %.lr.ph.split
  %indvars.iv75 = phi i64 [ 0, %.lr.ph.split.preheader ], [ %indvars.iv.next76, %.lr.ph.split ]
  %gep89 = getelementptr inbounds nuw i8, ptr %invariant.gep88, i64 %indvars.iv75
  %34 = load i8, ptr %gep89, align 1, !tbaa !4
  %35 = add i8 %34, -127
  %or.cond = icmp ult i8 %35, -95
  %narrow = select i1 %or.cond, i8 46, i8 %34
  %spec.store.select2 = zext i8 %narrow to i32
  %fputc58 = tail call i32 @fputc(i32 %spec.store.select2, ptr nonnull %1)
  %indvars.iv.next76 = add nuw nsw i64 %indvars.iv75, 1
  %36 = icmp slt i64 %indvars.iv.next76, %29
  br i1 %36, label %.lr.ph.split, label %._crit_edge.thread85, !llvm.loop !9

._crit_edge.thread:                               ; preds = %.lr.ph.split.us, %.thread84
  tail call void (ptr, i32, ptr, ...) @av_log(ptr noundef %0, i32 noundef %2, ptr noundef nonnull @.str.15) #9
  br label %37

._crit_edge.thread85:                             ; preds = %.lr.ph.split, %.loopexit
  %fputc57 = tail call i32 @fputc(i32 10, ptr nonnull %1)
  br label %37

37:                                               ; preds = %._crit_edge.thread, %._crit_edge.thread85
  %indvars.iv.next82 = add nuw nsw i64 %indvars.iv81, 16
  %38 = icmp samesign ult i64 %indvars.iv.next82, %7
  br i1 %38, label %8, label %._crit_edge67, !llvm.loop !10

._crit_edge67:                                    ; preds = %37, %5
  ret void
}